                              1 ;--------------------------------------------------------
                              2 ; File Created by SDCC : FreeWare ANSI-C Compiler
                              3 ; Version 2.3.1 Sat Jun  7 22:37:18 2014
                              4 
                              5 ;--------------------------------------------------------
                              6 	.module lcc260030
                              7 	
                              8 ;--------------------------------------------------------
                              9 ; Public variables in this module
                             10 ;--------------------------------------------------------
                             11 	.globl _main
                             12 	.globl __oper
                             13 	.globl __answer
                             14 	.globl __input2
                             15 	.globl __input1
                             16 	.globl _i
                             17 	.globl _clear_disp
                             18 	.globl _draw_screen
                             19 	.globl _select_op
                             20 	.globl _calc_ans
                             21 	.globl _redraw_in1
                             22 	.globl _redraw_in2
                             23 	.globl _redraw_op
                             24 	.globl _redraw_ans
                             25 ;--------------------------------------------------------
                             26 ; special function registers
                             27 ;--------------------------------------------------------
                             28 ;--------------------------------------------------------
                             29 ; special function bits 
                             30 ;--------------------------------------------------------
                             31 ;--------------------------------------------------------
                             32 ; internal ram data
                             33 ;--------------------------------------------------------
                             34 	.area _DATA
   0000                      35 _i::
   0000                      36 	.ds 1
   0001                      37 __input1::
   0001                      38 	.ds 4
   0005                      39 __input2::
   0005                      40 	.ds 4
   0009                      41 __answer::
   0009                      42 	.ds 4
   000D                      43 __oper::
   000D                      44 	.ds 1
                             45 ;--------------------------------------------------------
                             46 ; overlayable items in internal ram 
                             47 ;--------------------------------------------------------
                             48 	.area _OVERLAY
                             49 ;--------------------------------------------------------
                             50 ; indirectly addressable internal ram data
                             51 ;--------------------------------------------------------
                             52 	.area _ISEG
                             53 ;--------------------------------------------------------
                             54 ; bit data
                             55 ;--------------------------------------------------------
                             56 	.area _BSEG
                             57 ;--------------------------------------------------------
                             58 ; external ram data
                             59 ;--------------------------------------------------------
                             60 	.area _XSEG
                             61 ;--------------------------------------------------------
                             62 ; global & static initialisations
                             63 ;--------------------------------------------------------
                             64 	.area _GSINIT
                             65 	.area _GSFINAL
                             66 	.area _GSINIT
                             67 ;	calcboy.c 30
                             68 ;	genAssign
                             69 ;	AOP_HL for __input1
   0000 AF                   70 	xor	a,a
   0001 21 01 00             71 	ld	hl,#__input1
   0004 22                   72 	ld	(hl+),a
   0005 22                   73 	ld	(hl+),a
   0006 22                   74 	ld	(hl+),a
   0007 77                   75 	ld	(hl),a
                             76 ;	calcboy.c 31
                             77 ;	genAssign
                             78 ;	AOP_HL for __input2
   0008 AF                   79 	xor	a,a
   0009 21 05 00             80 	ld	hl,#__input2
   000C 22                   81 	ld	(hl+),a
   000D 22                   82 	ld	(hl+),a
   000E 22                   83 	ld	(hl+),a
   000F 77                   84 	ld	(hl),a
                             85 ;	calcboy.c 32
                             86 ;	genAssign
                             87 ;	AOP_HL for __answer
   0010 AF                   88 	xor	a,a
   0011 21 09 00             89 	ld	hl,#__answer
   0014 22                   90 	ld	(hl+),a
   0015 22                   91 	ld	(hl+),a
   0016 22                   92 	ld	(hl+),a
   0017 77                   93 	ld	(hl),a
                             94 ;	calcboy.c 33
                             95 ;	genAssign
                             96 ;	AOP_HL for __oper
   0018 21 0D 00             97 	ld	hl,#__oper
   001B 36 2B                98 	ld	(hl),#0x2B
                             99 ;--------------------------------------------------------
                            100 ; Home
                            101 ;--------------------------------------------------------
                            102 	.area _HOME
                            103 	.area _CODE
                            104 ;--------------------------------------------------------
                            105 ; code
                            106 ;--------------------------------------------------------
                            107 	.area _CODE
                            108 ;	calcboy.c 45
                            109 ;	genLabel
                            110 ;	genFunction
                            111 ;	---------------------------------
                            112 ; Function main
                            113 ; ---------------------------------
   0000                     114 ___main_start:
   0000                     115 _main:
                            116 	
                            117 ;	calcboy.c 46
                            118 ;	genCall
                            119 ; _saveRegsForCall: sendSetSize: 0 deInUse: 0 bcInUse: 0 deSending: 0
   0000 CD D5 00            120 	call	_draw_screen
                            121 ;	calcboy.c 49
                            122 ;	genLabel
   0003                     123 00109$:
                            124 ;	calcboy.c 50
                            125 ;	genCall
                            126 ; _saveRegsForCall: sendSetSize: 0 deInUse: 0 bcInUse: 0 deSending: 0
   0003 CD 00 00            127 	call	_joypad
   0006 4B                  128 	ld	c,e
                            129 ;	genCmpEq
                            130 ; genCmpEq: left 1, right 1, result 0
   0007 79                  131 	ld	a,c
   0008 FE 01               132 	cp	a,#0x01
   000A CA 53 00            133 	jp	z,00102$
   000D                     134 00120$:
                            135 ;	genCmpEq
                            136 ; genCmpEq: left 1, right 1, result 0
   000D 79                  137 	ld	a,c
   000E FE 02               138 	cp	a,#0x02
   0010 CA 2E 00            139 	jp	z,00101$
   0013                     140 00121$:
                            141 ;	genCmpEq
                            142 ; genCmpEq: left 1, right 1, result 0
   0013 79                  143 	ld	a,c
   0014 FE 04               144 	cp	a,#0x04
   0016 CA 69 00            145 	jp	z,00103$
   0019                     146 00122$:
                            147 ;	genCmpEq
                            148 ; genCmpEq: left 1, right 1, result 0
   0019 79                  149 	ld	a,c
   001A FE 08               150 	cp	a,#0x08
   001C CA 7F 00            151 	jp	z,00104$
   001F                     152 00123$:
                            153 ;	genCmpEq
                            154 ; genCmpEq: left 1, right 1, result 0
   001F 79                  155 	ld	a,c
   0020 FE 40               156 	cp	a,#0x40
   0022 CA AA 00            157 	jp	z,00106$
   0025                     158 00124$:
                            159 ;	genCmpEq
                            160 ; genCmpEq: left 1, right 1, result 0
   0025 79                  161 	ld	a,c
   0026 FE 80               162 	cp	a,#0x80
   0028 CA A4 00            163 	jp	z,00105$
   002B                     164 00125$:
                            165 ;	genGoto
   002B C3 03 00            166 	jp	00109$
                            167 ;	calcboy.c 52
                            168 ;	genLabel
   002E                     169 00101$:
                            170 ;	genMinus
                            171 ;	AOP_HL for __input1
   002E 21 01 00            172 	ld	hl,#__input1
   0031 5E                  173 	ld	e,(hl)
   0032 23                  174 	inc	hl
   0033 56                  175 	ld	d,(hl)
   0034 7B                  176 	ld	a,e
   0035 D6 01               177 	sub	a,#0x01
   0037 5F                  178 	ld	e,a
   0038 7A                  179 	ld	a,d
   0039 DE 00               180 	sbc	a,#0x00
   003B F5                  181 	push	af
   003C 32                  182 	ld      (hl-),a
   003D 73                  183 	ld	(hl),e
   003E 23                  184 	inc	hl
   003F 23                  185 	inc	hl
   0040 5E                  186 	ld	e,(hl)
   0041 23                  187 	inc	hl
   0042 56                  188 	ld	d,(hl)
   0043 F1                  189 	pop	af
   0044 7B                  190 	ld	a,e
   0045 DE 00               191 	sbc	a,#0x00
   0047 5F                  192 	ld	e,a
   0048 7A                  193 	ld	a,d
   0049 DE 00               194 	sbc	a,#0x00
   004B 32                  195 	ld      (hl-),a
   004C 73                  196 	ld	(hl),e
                            197 ;	calcboy.c 53
                            198 ;	genCall
                            199 ; _saveRegsForCall: sendSetSize: 0 deInUse: 0 bcInUse: 0 deSending: 0
   004D CD BF 03            200 	call	_redraw_in1
                            201 ;	calcboy.c 54
                            202 ;	genGoto
   0050 C3 03 00            203 	jp	00109$
                            204 ;	calcboy.c 56
                            205 ;	genLabel
   0053                     206 00102$:
                            207 ;	genPlus
                            208 ;	AOP_HL for __input1
                            209 ;	genPlusIncr
   0053 21 01 00            210 	ld	hl,#__input1
   0056 34                  211 	inc	(hl)
   0057 20 0A               212 	jr	nz,00126$
   0059 23                  213 	inc	hl
   005A 34                  214 	inc	(hl)
   005B 20 06               215 	jr	nz,00126$
   005D 23                  216 	inc	hl
   005E 34                  217 	inc	(hl)
   005F 20 02               218 	jr	nz,00126$
   0061 23                  219 	inc	hl
   0062 34                  220 	inc	(hl)
   0063                     221 00126$:
                            222 ;	calcboy.c 57
                            223 ;	genCall
                            224 ; _saveRegsForCall: sendSetSize: 0 deInUse: 0 bcInUse: 0 deSending: 0
   0063 CD BF 03            225 	call	_redraw_in1
                            226 ;	calcboy.c 58
                            227 ;	genGoto
   0066 C3 03 00            228 	jp	00109$
                            229 ;	calcboy.c 60
                            230 ;	genLabel
   0069                     231 00103$:
                            232 ;	genPlus
                            233 ;	AOP_HL for __input2
                            234 ;	genPlusIncr
   0069 21 05 00            235 	ld	hl,#__input2
   006C 34                  236 	inc	(hl)
   006D 20 0A               237 	jr	nz,00127$
   006F 23                  238 	inc	hl
   0070 34                  239 	inc	(hl)
   0071 20 06               240 	jr	nz,00127$
   0073 23                  241 	inc	hl
   0074 34                  242 	inc	(hl)
   0075 20 02               243 	jr	nz,00127$
   0077 23                  244 	inc	hl
   0078 34                  245 	inc	(hl)
   0079                     246 00127$:
                            247 ;	calcboy.c 61
                            248 ;	genCall
                            249 ; _saveRegsForCall: sendSetSize: 0 deInUse: 0 bcInUse: 0 deSending: 0
   0079 CD FD 03            250 	call	_redraw_in2
                            251 ;	calcboy.c 62
                            252 ;	genGoto
   007C C3 03 00            253 	jp	00109$
                            254 ;	calcboy.c 64
                            255 ;	genLabel
   007F                     256 00104$:
                            257 ;	genMinus
                            258 ;	AOP_HL for __input2
   007F 21 05 00            259 	ld	hl,#__input2
   0082 5E                  260 	ld	e,(hl)
   0083 23                  261 	inc	hl
   0084 56                  262 	ld	d,(hl)
   0085 7B                  263 	ld	a,e
   0086 D6 01               264 	sub	a,#0x01
   0088 5F                  265 	ld	e,a
   0089 7A                  266 	ld	a,d
   008A DE 00               267 	sbc	a,#0x00
   008C F5                  268 	push	af
   008D 32                  269 	ld      (hl-),a
   008E 73                  270 	ld	(hl),e
   008F 23                  271 	inc	hl
   0090 23                  272 	inc	hl
   0091 5E                  273 	ld	e,(hl)
   0092 23                  274 	inc	hl
   0093 56                  275 	ld	d,(hl)
   0094 F1                  276 	pop	af
   0095 7B                  277 	ld	a,e
   0096 DE 00               278 	sbc	a,#0x00
   0098 5F                  279 	ld	e,a
   0099 7A                  280 	ld	a,d
   009A DE 00               281 	sbc	a,#0x00
   009C 32                  282 	ld      (hl-),a
   009D 73                  283 	ld	(hl),e
                            284 ;	calcboy.c 65
                            285 ;	genCall
                            286 ; _saveRegsForCall: sendSetSize: 0 deInUse: 0 bcInUse: 0 deSending: 0
   009E CD FD 03            287 	call	_redraw_in2
                            288 ;	calcboy.c 66
                            289 ;	genGoto
   00A1 C3 03 00            290 	jp	00109$
                            291 ;	calcboy.c 68
                            292 ;	genLabel
   00A4                     293 00105$:
                            294 ;	genCall
                            295 ; _saveRegsForCall: sendSetSize: 0 deInUse: 0 bcInUse: 0 deSending: 0
   00A4 CD CC 02            296 	call	_calc_ans
                            297 ;	calcboy.c 69
                            298 ;	genGoto
   00A7 C3 03 00            299 	jp	00109$
                            300 ;	calcboy.c 71
                            301 ;	genLabel
   00AA                     302 00106$:
                            303 ;	genCall
                            304 ; _saveRegsForCall: sendSetSize: 0 deInUse: 0 bcInUse: 0 deSending: 0
   00AA CD 73 02            305 	call	_select_op
                            306 ;	calcboy.c 73
                            307 ;	genGoto
   00AD C3 03 00            308 	jp	00109$
                            309 ;	calcboy.c 76
                            310 ;	genLabel
   00B0                     311 00111$:
                            312 ;	genEndFunction
                            313 	
   00B0 C9                  314 	ret
   00B1                     315 ___main_end:
                            316 ;	calcboy.c 82
                            317 ;	genLabel
                            318 ;	genFunction
                            319 ;	---------------------------------
                            320 ; Function clear_disp
                            321 ; ---------------------------------
   00B1                     322 ___clear_disp_start:
   00B1                     323 _clear_disp:
                            324 	
                            325 ;	calcboy.c 83
                            326 ;	genAssign
                            327 ;	AOP_HL for _i
   00B1 21 00 00            328 	ld	hl,#_i
   00B4 36 00               329 	ld	(hl),#0x00
                            330 ;	genLabel
   00B6                     331 00101$:
                            332 ;	genCmpLt
                            333 ;	AOP_HL for _i
   00B6 21 00 00            334 	ld	hl,#_i
   00B9 7E                  335 	ld	a,(hl)
   00BA EE 80               336 	xor	a,#0x80
   00BC FE 92               337 	cp	#0x12^0x80
   00BE D2 D1 00            338 	jp	nc,00105$
                            339 ;	calcboy.c 84
                            340 ;	genIpush
                            341 ; _saveRegsForCall: sendSetSize: 0 deInUse: 0 bcInUse: 0 deSending: 0
   00C1 21 D2 00            342 	ld	hl,#__str_0
   00C4 E5                  343 	push	hl
                            344 ;	genCall
   00C5 CD 00 00            345 	call	_printf
   00C8 E8 02               346 	lda	sp,2(sp)
                            347 ;	calcboy.c 83
                            348 ;	genPlus
                            349 ;	AOP_HL for _i
                            350 ;	genPlusIncr
   00CA 21 00 00            351 	ld	hl,#_i
   00CD 34                  352 	inc	(hl)
                            353 ;	genGoto
   00CE C3 B6 00            354 	jp	00101$
                            355 ;	genLabel
   00D1                     356 00105$:
                            357 ;	genEndFunction
                            358 	
   00D1 C9                  359 	ret
   00D2                     360 ___clear_disp_end:
   00D2                     361 __str_0:
   00D2 20                  362 	.ascii " "
   00D3 0A                  363 	.db 0x0A
   00D4 00                  364 	.db 0x00
                            365 ;	calcboy.c 91
                            366 ;	genLabel
                            367 ;	genFunction
                            368 ;	---------------------------------
                            369 ; Function draw_screen
                            370 ; ---------------------------------
   00D5                     371 ___draw_screen_start:
   00D5                     372 _draw_screen:
                            373 	
                            374 ;	calcboy.c 92
                            375 ;	genIpush
                            376 ; _saveRegsForCall: sendSetSize: 0 deInUse: 0 bcInUse: 0 deSending: 0
   00D5 21 AB 01            377 	ld	hl,#__str_1
   00D8 E5                  378 	push	hl
                            379 ;	genCall
   00D9 CD 00 00            380 	call	_printf
   00DC E8 02               381 	lda	sp,2(sp)
                            382 ;	calcboy.c 93
                            383 ;	genIpush
                            384 ; _saveRegsForCall: sendSetSize: 0 deInUse: 0 bcInUse: 0 deSending: 0
   00DE 21 AE 01            385 	ld	hl,#__str_2
   00E1 E5                  386 	push	hl
                            387 ;	genCall
   00E2 CD 00 00            388 	call	_printf
   00E5 E8 02               389 	lda	sp,2(sp)
                            390 ;	calcboy.c 94
                            391 ;	genIpush
                            392 ; _saveRegsForCall: sendSetSize: 0 deInUse: 0 bcInUse: 0 deSending: 0
   00E7 21 C3 01            393 	ld	hl,#__str_3
   00EA E5                  394 	push	hl
                            395 ;	genCall
   00EB CD 00 00            396 	call	_printf
   00EE E8 02               397 	lda	sp,2(sp)
                            398 ;	calcboy.c 95
                            399 ;	genIpush
                            400 ; _saveRegsForCall: sendSetSize: 0 deInUse: 0 bcInUse: 0 deSending: 0
   00F0 21 CD 01            401 	ld	hl,#__str_4
   00F3 E5                  402 	push	hl
                            403 ;	genCall
   00F4 CD 00 00            404 	call	_printf
   00F7 E8 02               405 	lda	sp,2(sp)
                            406 ;	calcboy.c 96
                            407 ;	genIpush
                            408 ; _saveRegsForCall: sendSetSize: 0 deInUse: 0 bcInUse: 0 deSending: 0
                            409 ;	AOP_HL for __input1
   00F9 21 03 00            410 	ld	hl,#__input1 + 2
   00FC 2A                  411 	ld	a,(hl+)
   00FD 66                  412 	ld	h,(hl)
   00FE 6F                  413 	ld	l,a
   00FF E5                  414 	push	hl
   0100 21 01 00            415 	ld	hl,#__input1
   0103 2A                  416 	ld	a,(hl+)
   0104 66                  417 	ld	h,(hl)
   0105 6F                  418 	ld	l,a
   0106 E5                  419 	push	hl
                            420 ;	genIpush
   0107 21 D0 01            421 	ld	hl,#__str_5
   010A E5                  422 	push	hl
                            423 ;	genCall
   010B CD 00 00            424 	call	_printf
   010E E8 06               425 	lda	sp,6(sp)
                            426 ;	calcboy.c 97
                            427 ;	genIpush
                            428 ; _saveRegsForCall: sendSetSize: 0 deInUse: 0 bcInUse: 0 deSending: 0
   0110 21 DF 01            429 	ld	hl,#__str_6
   0113 E5                  430 	push	hl
                            431 ;	genCall
   0114 CD 00 00            432 	call	_printf
   0117 E8 02               433 	lda	sp,2(sp)
                            434 ;	calcboy.c 98
                            435 ;	genCast
                            436 ;	AOP_HL for __oper
   0119 21 0D 00            437 	ld	hl,#__oper
   011C 4E                  438 	ld	c,(hl)
   011D 7E                  439 	ld	a,(hl)
   011E 17                  440 	rla	
   011F 9F                  441 	sbc	a,a
   0120 47                  442 	ld	b,a
                            443 ;	genIpush
                            444 ; _saveRegsForCall: sendSetSize: 0 deInUse: 0 bcInUse: 0 deSending: 0
   0121 C5                  445 	push	bc
                            446 ;	genIpush
   0122 21 E1 01            447 	ld	hl,#__str_7
   0125 E5                  448 	push	hl
                            449 ;	genCall
   0126 CD 00 00            450 	call	_printf
   0129 E8 04               451 	lda	sp,4(sp)
                            452 ;	calcboy.c 99
                            453 ;	genIpush
                            454 ; _saveRegsForCall: sendSetSize: 0 deInUse: 0 bcInUse: 0 deSending: 0
   012B 21 F0 01            455 	ld	hl,#__str_8
   012E E5                  456 	push	hl
                            457 ;	genCall
   012F CD 00 00            458 	call	_printf
   0132 E8 02               459 	lda	sp,2(sp)
                            460 ;	calcboy.c 100
                            461 ;	genIpush
                            462 ; _saveRegsForCall: sendSetSize: 0 deInUse: 0 bcInUse: 0 deSending: 0
                            463 ;	AOP_HL for __input2
   0134 21 07 00            464 	ld	hl,#__input2 + 2
   0137 2A                  465 	ld	a,(hl+)
   0138 66                  466 	ld	h,(hl)
   0139 6F                  467 	ld	l,a
   013A E5                  468 	push	hl
   013B 21 05 00            469 	ld	hl,#__input2
   013E 2A                  470 	ld	a,(hl+)
   013F 66                  471 	ld	h,(hl)
   0140 6F                  472 	ld	l,a
   0141 E5                  473 	push	hl
                            474 ;	genIpush
   0142 21 F2 01            475 	ld	hl,#__str_9
   0145 E5                  476 	push	hl
                            477 ;	genCall
   0146 CD 00 00            478 	call	_printf
   0149 E8 06               479 	lda	sp,6(sp)
                            480 ;	calcboy.c 101
                            481 ;	genIpush
                            482 ; _saveRegsForCall: sendSetSize: 0 deInUse: 0 bcInUse: 0 deSending: 0
   014B 21 01 02            483 	ld	hl,#__str_10
   014E E5                  484 	push	hl
                            485 ;	genCall
   014F CD 00 00            486 	call	_printf
   0152 E8 02               487 	lda	sp,2(sp)
                            488 ;	calcboy.c 102
                            489 ;	genIpush
                            490 ; _saveRegsForCall: sendSetSize: 0 deInUse: 0 bcInUse: 0 deSending: 0
                            491 ;	AOP_HL for __answer
   0154 21 0B 00            492 	ld	hl,#__answer + 2
   0157 2A                  493 	ld	a,(hl+)
   0158 66                  494 	ld	h,(hl)
   0159 6F                  495 	ld	l,a
   015A E5                  496 	push	hl
   015B 21 09 00            497 	ld	hl,#__answer
   015E 2A                  498 	ld	a,(hl+)
   015F 66                  499 	ld	h,(hl)
   0160 6F                  500 	ld	l,a
   0161 E5                  501 	push	hl
                            502 ;	genIpush
   0162 21 03 02            503 	ld	hl,#__str_11
   0165 E5                  504 	push	hl
                            505 ;	genCall
   0166 CD 00 00            506 	call	_printf
   0169 E8 06               507 	lda	sp,6(sp)
                            508 ;	calcboy.c 103
                            509 ;	genIpush
                            510 ; _saveRegsForCall: sendSetSize: 0 deInUse: 0 bcInUse: 0 deSending: 0
   016B 21 12 02            511 	ld	hl,#__str_12
   016E E5                  512 	push	hl
                            513 ;	genCall
   016F CD 00 00            514 	call	_printf
   0172 E8 02               515 	lda	sp,2(sp)
                            516 ;	calcboy.c 104
                            517 ;	genIpush
                            518 ; _saveRegsForCall: sendSetSize: 0 deInUse: 0 bcInUse: 0 deSending: 0
   0174 21 16 02            519 	ld	hl,#__str_13
   0177 E5                  520 	push	hl
                            521 ;	genCall
   0178 CD 00 00            522 	call	_printf
   017B E8 02               523 	lda	sp,2(sp)
                            524 ;	calcboy.c 105
                            525 ;	genIpush
                            526 ; _saveRegsForCall: sendSetSize: 0 deInUse: 0 bcInUse: 0 deSending: 0
   017D 21 1D 02            527 	ld	hl,#__str_14
   0180 E5                  528 	push	hl
                            529 ;	genCall
   0181 CD 00 00            530 	call	_printf
   0184 E8 02               531 	lda	sp,2(sp)
                            532 ;	calcboy.c 106
                            533 ;	genIpush
                            534 ; _saveRegsForCall: sendSetSize: 0 deInUse: 0 bcInUse: 0 deSending: 0
   0186 21 25 02            535 	ld	hl,#__str_15
   0189 E5                  536 	push	hl
                            537 ;	genCall
   018A CD 00 00            538 	call	_printf
   018D E8 02               539 	lda	sp,2(sp)
                            540 ;	calcboy.c 107
                            541 ;	genIpush
                            542 ; _saveRegsForCall: sendSetSize: 0 deInUse: 0 bcInUse: 0 deSending: 0
   018F 21 3A 02            543 	ld	hl,#__str_16
   0192 E5                  544 	push	hl
                            545 ;	genCall
   0193 CD 00 00            546 	call	_printf
   0196 E8 02               547 	lda	sp,2(sp)
                            548 ;	calcboy.c 108
                            549 ;	genIpush
                            550 ; _saveRegsForCall: sendSetSize: 0 deInUse: 0 bcInUse: 0 deSending: 0
   0198 21 4D 02            551 	ld	hl,#__str_17
   019B E5                  552 	push	hl
                            553 ;	genCall
   019C CD 00 00            554 	call	_printf
   019F E8 02               555 	lda	sp,2(sp)
                            556 ;	calcboy.c 109
                            557 ;	genIpush
                            558 ; _saveRegsForCall: sendSetSize: 0 deInUse: 0 bcInUse: 0 deSending: 0
   01A1 21 61 02            559 	ld	hl,#__str_18
   01A4 E5                  560 	push	hl
                            561 ;	genCall
   01A5 CD 00 00            562 	call	_printf
   01A8 E8 02               563 	lda	sp,2(sp)
                            564 ;	genLabel
   01AA                     565 00101$:
                            566 ;	genEndFunction
                            567 	
   01AA C9                  568 	ret
   01AB                     569 ___draw_screen_end:
   01AB                     570 __str_1:
   01AB 20                  571 	.ascii " "
   01AC 0A                  572 	.db 0x0A
   01AD 00                  573 	.db 0x00
   01AE                     574 __str_2:
   01AE 20 43 41 4C 43 42   575 	.ascii " CALCBOY   by ipavl"
        4F 59 20 20 20 62
        79 20 69 70 61 76
        6C
   01C1 0A                  576 	.db 0x0A
   01C2 00                  577 	.db 0x00
   01C3                     578 __str_3:
   01C3 20 2D 2D 2D 2D 2D   579 	.ascii " -------"
        2D 2D
   01CB 0A                  580 	.db 0x0A
   01CC 00                  581 	.db 0x00
   01CD                     582 __str_4:
   01CD 20                  583 	.ascii " "
   01CE 0A                  584 	.db 0x0A
   01CF 00                  585 	.db 0x00
   01D0                     586 __str_5:
   01D0 20 20 20 49 6E 70   587 	.ascii "   Input 1: %u"
        75 74 20 31 3A 20
        25 75
   01DE 00                  588 	.db 0x00
   01DF                     589 __str_6:
   01DF 0A                  590 	.db 0x0A
   01E0 00                  591 	.db 0x00
   01E1                     592 __str_7:
   01E1 20 4F 70 65 72 61   593 	.ascii " Operation: %c"
        74 69 6F 6E 3A 20
        25 63
   01EF 00                  594 	.db 0x00
   01F0                     595 __str_8:
   01F0 0A                  596 	.db 0x0A
   01F1 00                  597 	.db 0x00
   01F2                     598 __str_9:
   01F2 20 20 20 49 6E 70   599 	.ascii "   Input 2: %u"
        75 74 20 32 3A 20
        25 75
   0200 00                  600 	.db 0x00
   0201                     601 __str_10:
   0201 0A                  602 	.db 0x0A
   0202 00                  603 	.db 0x00
   0203                     604 __str_11:
   0203 20 20 20 20 41 6E   605 	.ascii "    Answer: %u"
        73 77 65 72 3A 20
        25 75
   0211 00                  606 	.db 0x00
   0212                     607 __str_12:
   0212 0A                  608 	.db 0x0A
   0213 20                  609 	.ascii " "
   0214 0A                  610 	.db 0x0A
   0215 00                  611 	.db 0x00
   0216                     612 __str_13:
   0216 20 48 45 4C 50      613 	.ascii " HELP"
   021B 0A                  614 	.db 0x0A
   021C 00                  615 	.db 0x00
   021D                     616 __str_14:
   021D 20 2D 2D 2D 2D      617 	.ascii " ----"
   0222 0A                  618 	.db 0x0A
   0223 0A                  619 	.db 0x0A
   0224 00                  620 	.db 0x00
   0225                     621 __str_15:
   0225 20 49 6E 70 75 74   622 	.ascii " Input1: LEFT/RIGHT"
        31 3A 20 4C 45 46
        54 2F 52 49 47 48
        54
   0238 0A                  623 	.db 0x0A
   0239 00                  624 	.db 0x00
   023A                     625 __str_16:
   023A 20 49 6E 70 75 74   626 	.ascii " Input2: UP/DOWN"
        32 3A 20 55 50 2F
        44 4F 57 4E
   024A 0A                  627 	.db 0x0A
   024B 0A                  628 	.db 0x0A
   024C 00                  629 	.db 0x00
   024D                     630 __str_17:
   024D 20 4F 70 65 72 61   631 	.ascii " Operation: SELECT"
        74 69 6F 6E 3A 20
        53 45 4C 45 43 54
   025F 0A                  632 	.db 0x0A
   0260 00                  633 	.db 0x00
   0261                     634 __str_18:
   0261 20 43 61 6C 63 75   635 	.ascii " Calculate: START"
        6C 61 74 65 3A 20
        53 54 41 52 54
   0272 00                  636 	.db 0x00
                            637 ;	calcboy.c 116
                            638 ;	genLabel
                            639 ;	genFunction
                            640 ;	---------------------------------
                            641 ; Function select_op
                            642 ; ---------------------------------
   0273                     643 ___select_op_start:
   0273                     644 _select_op:
                            645 	
                            646 ;	calcboy.c 117
                            647 ;	genCmpEq
                            648 ;	AOP_HL for __oper
                            649 ; genCmpEq: left 1, right 1, result 0
   0273 21 0D 00            650 	ld	hl,#__oper
   0276 7E                  651 	ld	a,(hl)
   0277 FE 2B               652 	cp	a,#0x2B
   0279 C2 89 02            653 	jp	nz,00110$
   027C 18 03               654 	jr	00119$
   027E                     655 00118$:
   027E C3 89 02            656 	jp	00110$
   0281                     657 00119$:
                            658 ;	calcboy.c 118
                            659 ;	genAssign
                            660 ;	AOP_HL for __oper
   0281 21 0D 00            661 	ld	hl,#__oper
   0284 36 2D               662 	ld	(hl),#0x2D
                            663 ;	genGoto
   0286 C3 C8 02            664 	jp	00111$
                            665 ;	genLabel
   0289                     666 00110$:
                            667 ;	calcboy.c 119
                            668 ;	genCmpEq
                            669 ;	AOP_HL for __oper
                            670 ; genCmpEq: left 1, right 1, result 0
   0289 21 0D 00            671 	ld	hl,#__oper
   028C 7E                  672 	ld	a,(hl)
   028D FE 2D               673 	cp	a,#0x2D
   028F C2 9F 02            674 	jp	nz,00107$
   0292 18 03               675 	jr	00121$
   0294                     676 00120$:
   0294 C3 9F 02            677 	jp	00107$
   0297                     678 00121$:
                            679 ;	calcboy.c 120
                            680 ;	genAssign
                            681 ;	AOP_HL for __oper
   0297 21 0D 00            682 	ld	hl,#__oper
   029A 36 2A               683 	ld	(hl),#0x2A
                            684 ;	genGoto
   029C C3 C8 02            685 	jp	00111$
                            686 ;	genLabel
   029F                     687 00107$:
                            688 ;	calcboy.c 121
                            689 ;	genCmpEq
                            690 ;	AOP_HL for __oper
                            691 ; genCmpEq: left 1, right 1, result 0
   029F 21 0D 00            692 	ld	hl,#__oper
   02A2 7E                  693 	ld	a,(hl)
   02A3 FE 2A               694 	cp	a,#0x2A
   02A5 C2 B5 02            695 	jp	nz,00104$
   02A8 18 03               696 	jr	00123$
   02AA                     697 00122$:
   02AA C3 B5 02            698 	jp	00104$
   02AD                     699 00123$:
                            700 ;	calcboy.c 122
                            701 ;	genAssign
                            702 ;	AOP_HL for __oper
   02AD 21 0D 00            703 	ld	hl,#__oper
   02B0 36 2F               704 	ld	(hl),#0x2F
                            705 ;	genGoto
   02B2 C3 C8 02            706 	jp	00111$
                            707 ;	genLabel
   02B5                     708 00104$:
                            709 ;	calcboy.c 123
                            710 ;	genCmpEq
                            711 ;	AOP_HL for __oper
                            712 ; genCmpEq: left 1, right 1, result 0
   02B5 21 0D 00            713 	ld	hl,#__oper
   02B8 7E                  714 	ld	a,(hl)
   02B9 FE 2F               715 	cp	a,#0x2F
   02BB C2 C8 02            716 	jp	nz,00111$
   02BE 18 03               717 	jr	00125$
   02C0                     718 00124$:
   02C0 C3 C8 02            719 	jp	00111$
   02C3                     720 00125$:
                            721 ;	calcboy.c 124
                            722 ;	genAssign
                            723 ;	AOP_HL for __oper
   02C3 21 0D 00            724 	ld	hl,#__oper
   02C6 36 2B               725 	ld	(hl),#0x2B
                            726 ;	genLabel
   02C8                     727 00111$:
                            728 ;	calcboy.c 127
                            729 ;	genCall
                            730 ; _saveRegsForCall: sendSetSize: 0 deInUse: 0 bcInUse: 0 deSending: 0
   02C8 CD 3B 04            731 	call	_redraw_op
                            732 ;	genLabel
   02CB                     733 00112$:
                            734 ;	genEndFunction
                            735 	
   02CB C9                  736 	ret
   02CC                     737 ___select_op_end:
                            738 ;	calcboy.c 134
                            739 ;	genLabel
                            740 ;	genFunction
                            741 ;	---------------------------------
                            742 ; Function calc_ans
                            743 ; ---------------------------------
   02CC                     744 ___calc_ans_start:
   02CC                     745 _calc_ans:
                            746 	
                            747 ;	calcboy.c 135
                            748 ;	genCmpEq
                            749 ;	AOP_HL for __oper
                            750 ; genCmpEq: left 1, right 1, result 0
   02CC 21 0D 00            751 	ld	hl,#__oper
   02CF 7E                  752 	ld	a,(hl)
   02D0 FE 2B               753 	cp	a,#0x2B
   02D2 C2 07 03            754 	jp	nz,00110$
   02D5 18 03               755 	jr	00119$
   02D7                     756 00118$:
   02D7 C3 07 03            757 	jp	00110$
   02DA                     758 00119$:
                            759 ;	calcboy.c 136
                            760 ;	genPlus
                            761 ;	AOP_HL for __input1
                            762 ;	AOP_HL for __input2
                            763 ;	AOP_HL for __answer
                            764 ;	Can't optimise plus by inc, falling back to the normal way
   02DA 21 01 00            765 	ld	hl,#__input1
   02DD 5E                  766 	ld	e,(hl)
   02DE 23                  767 	inc	hl
   02DF 56                  768 	ld	d,(hl)
   02E0 7B                  769 	ld	a,e
   02E1 21 05 00            770 	ld	hl,#__input2
   02E4 86                  771 	add	a,(hl)
   02E5 5F                  772 	ld	e,a
   02E6 7A                  773 	ld	a,d
   02E7 23                  774 	inc	hl
   02E8 8E                  775 	adc	a,(hl)
   02E9 F5                  776 	push	af
   02EA 21 0A 00            777 	ld	hl,#__answer + 1
   02ED 32                  778 	ld      (hl-),a
   02EE 73                  779 	ld	(hl),e
   02EF 21 03 00            780 	ld	hl,#__input1 + 2
   02F2 5E                  781 	ld	e,(hl)
   02F3 23                  782 	inc	hl
   02F4 56                  783 	ld	d,(hl)
   02F5 21 07 00            784 	ld	hl,#__input2 + 2
   02F8 F1                  785 	pop	af
   02F9 7B                  786 	ld	a,e
   02FA 8E                  787 	adc	a,(hl)
   02FB 5F                  788 	ld	e,a
   02FC 7A                  789 	ld	a,d
   02FD 23                  790 	inc	hl
   02FE 8E                  791 	adc	a,(hl)
   02FF 21 0C 00            792 	ld	hl,#__answer + 3
   0302 32                  793 	ld      (hl-),a
   0303 73                  794 	ld	(hl),e
                            795 ;	genGoto
   0304 C3 BB 03            796 	jp	00111$
                            797 ;	genLabel
   0307                     798 00110$:
                            799 ;	calcboy.c 137
                            800 ;	genCmpEq
                            801 ;	AOP_HL for __oper
                            802 ; genCmpEq: left 1, right 1, result 0
   0307 21 0D 00            803 	ld	hl,#__oper
   030A 7E                  804 	ld	a,(hl)
   030B FE 2D               805 	cp	a,#0x2D
   030D C2 42 03            806 	jp	nz,00107$
   0310 18 03               807 	jr	00121$
   0312                     808 00120$:
   0312 C3 42 03            809 	jp	00107$
   0315                     810 00121$:
                            811 ;	calcboy.c 138
                            812 ;	genMinus
                            813 ;	AOP_HL for __input1
                            814 ;	AOP_HL for __input2
                            815 ;	AOP_HL for __answer
   0315 21 01 00            816 	ld	hl,#__input1
   0318 5E                  817 	ld	e,(hl)
   0319 23                  818 	inc	hl
   031A 56                  819 	ld	d,(hl)
   031B 7B                  820 	ld	a,e
   031C 21 05 00            821 	ld	hl,#__input2
   031F 96                  822 	sub	a,(hl)
   0320 5F                  823 	ld	e,a
   0321 7A                  824 	ld	a,d
   0322 23                  825 	inc	hl
   0323 9E                  826 	sbc	a,(hl)
   0324 F5                  827 	push	af
   0325 21 0A 00            828 	ld	hl,#__answer + 1
   0328 32                  829 	ld      (hl-),a
   0329 73                  830 	ld	(hl),e
   032A 21 03 00            831 	ld	hl,#__input1 + 2
   032D 5E                  832 	ld	e,(hl)
   032E 23                  833 	inc	hl
   032F 56                  834 	ld	d,(hl)
   0330 21 07 00            835 	ld	hl,#__input2 + 2
   0333 F1                  836 	pop	af
   0334 7B                  837 	ld	a,e
   0335 9E                  838 	sbc	a,(hl)
   0336 5F                  839 	ld	e,a
   0337 7A                  840 	ld	a,d
   0338 23                  841 	inc	hl
   0339 9E                  842 	sbc	a,(hl)
   033A 21 0C 00            843 	ld	hl,#__answer + 3
   033D 32                  844 	ld      (hl-),a
   033E 73                  845 	ld	(hl),e
                            846 ;	genGoto
   033F C3 BB 03            847 	jp	00111$
                            848 ;	genLabel
   0342                     849 00107$:
                            850 ;	calcboy.c 139
                            851 ;	genCmpEq
                            852 ;	AOP_HL for __oper
                            853 ; genCmpEq: left 1, right 1, result 0
   0342 21 0D 00            854 	ld	hl,#__oper
   0345 7E                  855 	ld	a,(hl)
   0346 FE 2A               856 	cp	a,#0x2A
   0348 C2 80 03            857 	jp	nz,00104$
   034B 18 03               858 	jr	00123$
   034D                     859 00122$:
   034D C3 80 03            860 	jp	00104$
   0350                     861 00123$:
                            862 ;	calcboy.c 140
                            863 ;	genIpush
                            864 ; _saveRegsForCall: sendSetSize: 0 deInUse: 0 bcInUse: 0 deSending: 0
                            865 ;	AOP_HL for __input2
   0350 21 07 00            866 	ld	hl,#__input2 + 2
   0353 2A                  867 	ld	a,(hl+)
   0354 66                  868 	ld	h,(hl)
   0355 6F                  869 	ld	l,a
   0356 E5                  870 	push	hl
   0357 21 05 00            871 	ld	hl,#__input2
   035A 2A                  872 	ld	a,(hl+)
   035B 66                  873 	ld	h,(hl)
   035C 6F                  874 	ld	l,a
   035D E5                  875 	push	hl
                            876 ;	genIpush
                            877 ;	AOP_HL for __input1
   035E 21 03 00            878 	ld	hl,#__input1 + 2
   0361 2A                  879 	ld	a,(hl+)
   0362 66                  880 	ld	h,(hl)
   0363 6F                  881 	ld	l,a
   0364 E5                  882 	push	hl
   0365 21 01 00            883 	ld	hl,#__input1
   0368 2A                  884 	ld	a,(hl+)
   0369 66                  885 	ld	h,(hl)
   036A 6F                  886 	ld	l,a
   036B E5                  887 	push	hl
                            888 ;	genCall
   036C CD 00 00            889 	call	__mulslong_rrx_s
                            890 ;	AOP_HL for __answer
   036F E5                  891 	push	hl
   0370 21 09 00            892 	ld	hl,#__answer
   0373 73                  893 	ld	(hl),e
   0374 23                  894 	inc	hl
   0375 72                  895 	ld	(hl),d
   0376 D1                  896 	pop	de
   0377 23                  897 	inc	hl
   0378 73                  898 	ld	(hl),e
   0379 23                  899 	inc	hl
   037A 72                  900 	ld	(hl),d
   037B E8 08               901 	lda	sp,8(sp)
                            902 ;	genGoto
   037D C3 BB 03            903 	jp	00111$
                            904 ;	genLabel
   0380                     905 00104$:
                            906 ;	calcboy.c 141
                            907 ;	genCmpEq
                            908 ;	AOP_HL for __oper
                            909 ; genCmpEq: left 1, right 1, result 0
   0380 21 0D 00            910 	ld	hl,#__oper
   0383 7E                  911 	ld	a,(hl)
   0384 FE 2F               912 	cp	a,#0x2F
   0386 C2 BB 03            913 	jp	nz,00111$
   0389 18 03               914 	jr	00125$
   038B                     915 00124$:
   038B C3 BB 03            916 	jp	00111$
   038E                     917 00125$:
                            918 ;	calcboy.c 142
                            919 ;	genIpush
                            920 ; _saveRegsForCall: sendSetSize: 0 deInUse: 0 bcInUse: 0 deSending: 0
                            921 ;	AOP_HL for __input2
   038E 21 07 00            922 	ld	hl,#__input2 + 2
   0391 2A                  923 	ld	a,(hl+)
   0392 66                  924 	ld	h,(hl)
   0393 6F                  925 	ld	l,a
   0394 E5                  926 	push	hl
   0395 21 05 00            927 	ld	hl,#__input2
   0398 2A                  928 	ld	a,(hl+)
   0399 66                  929 	ld	h,(hl)
   039A 6F                  930 	ld	l,a
   039B E5                  931 	push	hl
                            932 ;	genIpush
                            933 ;	AOP_HL for __input1
   039C 21 03 00            934 	ld	hl,#__input1 + 2
   039F 2A                  935 	ld	a,(hl+)
   03A0 66                  936 	ld	h,(hl)
   03A1 6F                  937 	ld	l,a
   03A2 E5                  938 	push	hl
   03A3 21 01 00            939 	ld	hl,#__input1
   03A6 2A                  940 	ld	a,(hl+)
   03A7 66                  941 	ld	h,(hl)
   03A8 6F                  942 	ld	l,a
   03A9 E5                  943 	push	hl
                            944 ;	genCall
   03AA CD 00 00            945 	call	__divslong_rrx_s
                            946 ;	AOP_HL for __answer
   03AD E5                  947 	push	hl
   03AE 21 09 00            948 	ld	hl,#__answer
   03B1 73                  949 	ld	(hl),e
   03B2 23                  950 	inc	hl
   03B3 72                  951 	ld	(hl),d
   03B4 D1                  952 	pop	de
   03B5 23                  953 	inc	hl
   03B6 73                  954 	ld	(hl),e
   03B7 23                  955 	inc	hl
   03B8 72                  956 	ld	(hl),d
   03B9 E8 08               957 	lda	sp,8(sp)
                            958 ;	genLabel
   03BB                     959 00111$:
                            960 ;	calcboy.c 145
                            961 ;	genCall
                            962 ; _saveRegsForCall: sendSetSize: 0 deInUse: 0 bcInUse: 0 deSending: 0
   03BB CD 74 04            963 	call	_redraw_ans
                            964 ;	genLabel
   03BE                     965 00112$:
                            966 ;	genEndFunction
                            967 	
   03BE C9                  968 	ret
   03BF                     969 ___calc_ans_end:
                            970 ;	calcboy.c 151
                            971 ;	genLabel
                            972 ;	genFunction
                            973 ;	---------------------------------
                            974 ; Function redraw_in1
                            975 ; ---------------------------------
   03BF                     976 ___redraw_in1_start:
   03BF                     977 _redraw_in1:
                            978 	
                            979 ;	calcboy.c 152
                            980 ;	genIpush
                            981 ; _saveRegsForCall: sendSetSize: 0 deInUse: 0 bcInUse: 0 deSending: 0
   03BF 21 0C 04            982 	ld	hl,#0x040C
   03C2 E5                  983 	push	hl
                            984 ;	genCall
   03C3 CD 00 00            985 	call	_gotoxy
   03C6 E8 02               986 	lda	sp,2(sp)
                            987 ;	calcboy.c 153
                            988 ;	genIpush
                            989 ; _saveRegsForCall: sendSetSize: 0 deInUse: 0 bcInUse: 0 deSending: 0
   03C8 21 F2 03            990 	ld	hl,#__str_19
   03CB E5                  991 	push	hl
                            992 ;	genCall
   03CC CD 00 00            993 	call	_printf
   03CF E8 02               994 	lda	sp,2(sp)
                            995 ;	calcboy.c 155
                            996 ;	genIpush
                            997 ; _saveRegsForCall: sendSetSize: 0 deInUse: 0 bcInUse: 0 deSending: 0
   03D1 21 0C 04            998 	ld	hl,#0x040C
   03D4 E5                  999 	push	hl
                           1000 ;	genCall
   03D5 CD 00 00           1001 	call	_gotoxy
   03D8 E8 02              1002 	lda	sp,2(sp)
                           1003 ;	calcboy.c 156
                           1004 ;	genIpush
                           1005 ; _saveRegsForCall: sendSetSize: 0 deInUse: 0 bcInUse: 0 deSending: 0
                           1006 ;	AOP_HL for __input1
   03DA 21 03 00           1007 	ld	hl,#__input1 + 2
   03DD 2A                 1008 	ld	a,(hl+)
   03DE 66                 1009 	ld	h,(hl)
   03DF 6F                 1010 	ld	l,a
   03E0 E5                 1011 	push	hl
   03E1 21 01 00           1012 	ld	hl,#__input1
   03E4 2A                 1013 	ld	a,(hl+)
   03E5 66                 1014 	ld	h,(hl)
   03E6 6F                 1015 	ld	l,a
   03E7 E5                 1016 	push	hl
                           1017 ;	genIpush
   03E8 21 FA 03           1018 	ld	hl,#__str_20
   03EB E5                 1019 	push	hl
                           1020 ;	genCall
   03EC CD 00 00           1021 	call	_printf
   03EF E8 06              1022 	lda	sp,6(sp)
                           1023 ;	genLabel
   03F1                    1024 00101$:
                           1025 ;	genEndFunction
                           1026 	
   03F1 C9                 1027 	ret
   03F2                    1028 ___redraw_in1_end:
   03F2                    1029 __str_19:
   03F2 20 20 20 20 20 20  1030 	.ascii "       "
        20
   03F9 00                 1031 	.db 0x00
   03FA                    1032 __str_20:
   03FA 25 75              1033 	.ascii "%u"
   03FC 00                 1034 	.db 0x00
                           1035 ;	calcboy.c 162
                           1036 ;	genLabel
                           1037 ;	genFunction
                           1038 ;	---------------------------------
                           1039 ; Function redraw_in2
                           1040 ; ---------------------------------
   03FD                    1041 ___redraw_in2_start:
   03FD                    1042 _redraw_in2:
                           1043 	
                           1044 ;	calcboy.c 163
                           1045 ;	genIpush
                           1046 ; _saveRegsForCall: sendSetSize: 0 deInUse: 0 bcInUse: 0 deSending: 0
   03FD 21 0C 06           1047 	ld	hl,#0x060C
   0400 E5                 1048 	push	hl
                           1049 ;	genCall
   0401 CD 00 00           1050 	call	_gotoxy
   0404 E8 02              1051 	lda	sp,2(sp)
                           1052 ;	calcboy.c 164
                           1053 ;	genIpush
                           1054 ; _saveRegsForCall: sendSetSize: 0 deInUse: 0 bcInUse: 0 deSending: 0
   0406 21 30 04           1055 	ld	hl,#__str_21
   0409 E5                 1056 	push	hl
                           1057 ;	genCall
   040A CD 00 00           1058 	call	_printf
   040D E8 02              1059 	lda	sp,2(sp)
                           1060 ;	calcboy.c 166
                           1061 ;	genIpush
                           1062 ; _saveRegsForCall: sendSetSize: 0 deInUse: 0 bcInUse: 0 deSending: 0
   040F 21 0C 06           1063 	ld	hl,#0x060C
   0412 E5                 1064 	push	hl
                           1065 ;	genCall
   0413 CD 00 00           1066 	call	_gotoxy
   0416 E8 02              1067 	lda	sp,2(sp)
                           1068 ;	calcboy.c 167
                           1069 ;	genIpush
                           1070 ; _saveRegsForCall: sendSetSize: 0 deInUse: 0 bcInUse: 0 deSending: 0
                           1071 ;	AOP_HL for __input2
   0418 21 07 00           1072 	ld	hl,#__input2 + 2
   041B 2A                 1073 	ld	a,(hl+)
   041C 66                 1074 	ld	h,(hl)
   041D 6F                 1075 	ld	l,a
   041E E5                 1076 	push	hl
   041F 21 05 00           1077 	ld	hl,#__input2
   0422 2A                 1078 	ld	a,(hl+)
   0423 66                 1079 	ld	h,(hl)
   0424 6F                 1080 	ld	l,a
   0425 E5                 1081 	push	hl
                           1082 ;	genIpush
   0426 21 38 04           1083 	ld	hl,#__str_22
   0429 E5                 1084 	push	hl
                           1085 ;	genCall
   042A CD 00 00           1086 	call	_printf
   042D E8 06              1087 	lda	sp,6(sp)
                           1088 ;	genLabel
   042F                    1089 00101$:
                           1090 ;	genEndFunction
                           1091 	
   042F C9                 1092 	ret
   0430                    1093 ___redraw_in2_end:
   0430                    1094 __str_21:
   0430 20 20 20 20 20 20  1095 	.ascii "       "
        20
   0437 00                 1096 	.db 0x00
   0438                    1097 __str_22:
   0438 25 75              1098 	.ascii "%u"
   043A 00                 1099 	.db 0x00
                           1100 ;	calcboy.c 173
                           1101 ;	genLabel
                           1102 ;	genFunction
                           1103 ;	---------------------------------
                           1104 ; Function redraw_op
                           1105 ; ---------------------------------
   043B                    1106 ___redraw_op_start:
   043B                    1107 _redraw_op:
                           1108 	
                           1109 ;	calcboy.c 174
                           1110 ;	genIpush
                           1111 ; _saveRegsForCall: sendSetSize: 0 deInUse: 0 bcInUse: 0 deSending: 0
   043B 21 0C 05           1112 	ld	hl,#0x050C
   043E E5                 1113 	push	hl
                           1114 ;	genCall
   043F CD 00 00           1115 	call	_gotoxy
   0442 E8 02              1116 	lda	sp,2(sp)
                           1117 ;	calcboy.c 175
                           1118 ;	genIpush
                           1119 ; _saveRegsForCall: sendSetSize: 0 deInUse: 0 bcInUse: 0 deSending: 0
   0444 21 69 04           1120 	ld	hl,#__str_23
   0447 E5                 1121 	push	hl
                           1122 ;	genCall
   0448 CD 00 00           1123 	call	_printf
   044B E8 02              1124 	lda	sp,2(sp)
                           1125 ;	calcboy.c 177
                           1126 ;	genIpush
                           1127 ; _saveRegsForCall: sendSetSize: 0 deInUse: 0 bcInUse: 0 deSending: 0
   044D 21 0C 05           1128 	ld	hl,#0x050C
   0450 E5                 1129 	push	hl
                           1130 ;	genCall
   0451 CD 00 00           1131 	call	_gotoxy
   0454 E8 02              1132 	lda	sp,2(sp)
                           1133 ;	calcboy.c 178
                           1134 ;	genCast
                           1135 ;	AOP_HL for __oper
   0456 21 0D 00           1136 	ld	hl,#__oper
   0459 4E                 1137 	ld	c,(hl)
   045A 7E                 1138 	ld	a,(hl)
   045B 17                 1139 	rla	
   045C 9F                 1140 	sbc	a,a
   045D 47                 1141 	ld	b,a
                           1142 ;	genIpush
                           1143 ; _saveRegsForCall: sendSetSize: 0 deInUse: 0 bcInUse: 0 deSending: 0
   045E C5                 1144 	push	bc
                           1145 ;	genIpush
   045F 21 71 04           1146 	ld	hl,#__str_24
   0462 E5                 1147 	push	hl
                           1148 ;	genCall
   0463 CD 00 00           1149 	call	_printf
   0466 E8 04              1150 	lda	sp,4(sp)
                           1151 ;	genLabel
   0468                    1152 00101$:
                           1153 ;	genEndFunction
                           1154 	
   0468 C9                 1155 	ret
   0469                    1156 ___redraw_op_end:
   0469                    1157 __str_23:
   0469 20 20 20 20 20 20  1158 	.ascii "       "
        20
   0470 00                 1159 	.db 0x00
   0471                    1160 __str_24:
   0471 25 63              1161 	.ascii "%c"
   0473 00                 1162 	.db 0x00
                           1163 ;	calcboy.c 184
                           1164 ;	genLabel
                           1165 ;	genFunction
                           1166 ;	---------------------------------
                           1167 ; Function redraw_ans
                           1168 ; ---------------------------------
   0474                    1169 ___redraw_ans_start:
   0474                    1170 _redraw_ans:
                           1171 	
                           1172 ;	calcboy.c 186
                           1173 ;	genIpush
                           1174 ; _saveRegsForCall: sendSetSize: 0 deInUse: 0 bcInUse: 0 deSending: 0
   0474 21 0C 07           1175 	ld	hl,#0x070C
   0477 E5                 1176 	push	hl
                           1177 ;	genCall
   0478 CD 00 00           1178 	call	_gotoxy
   047B E8 02              1179 	lda	sp,2(sp)
                           1180 ;	calcboy.c 187
                           1181 ;	genIpush
                           1182 ; _saveRegsForCall: sendSetSize: 0 deInUse: 0 bcInUse: 0 deSending: 0
   047D 21 A7 04           1183 	ld	hl,#__str_25
   0480 E5                 1184 	push	hl
                           1185 ;	genCall
   0481 CD 00 00           1186 	call	_printf
   0484 E8 02              1187 	lda	sp,2(sp)
                           1188 ;	calcboy.c 190
                           1189 ;	genIpush
                           1190 ; _saveRegsForCall: sendSetSize: 0 deInUse: 0 bcInUse: 0 deSending: 0
   0486 21 0C 07           1191 	ld	hl,#0x070C
   0489 E5                 1192 	push	hl
                           1193 ;	genCall
   048A CD 00 00           1194 	call	_gotoxy
   048D E8 02              1195 	lda	sp,2(sp)
                           1196 ;	calcboy.c 191
                           1197 ;	genIpush
                           1198 ; _saveRegsForCall: sendSetSize: 0 deInUse: 0 bcInUse: 0 deSending: 0
                           1199 ;	AOP_HL for __answer
   048F 21 0B 00           1200 	ld	hl,#__answer + 2
   0492 2A                 1201 	ld	a,(hl+)
   0493 66                 1202 	ld	h,(hl)
   0494 6F                 1203 	ld	l,a
   0495 E5                 1204 	push	hl
   0496 21 09 00           1205 	ld	hl,#__answer
   0499 2A                 1206 	ld	a,(hl+)
   049A 66                 1207 	ld	h,(hl)
   049B 6F                 1208 	ld	l,a
   049C E5                 1209 	push	hl
                           1210 ;	genIpush
   049D 21 AF 04           1211 	ld	hl,#__str_26
   04A0 E5                 1212 	push	hl
                           1213 ;	genCall
   04A1 CD 00 00           1214 	call	_printf
   04A4 E8 06              1215 	lda	sp,6(sp)
                           1216 ;	genLabel
   04A6                    1217 00101$:
                           1218 ;	genEndFunction
                           1219 	
   04A6 C9                 1220 	ret
   04A7                    1221 ___redraw_ans_end:
   04A7                    1222 __str_25:
   04A7 20 20 20 20 20 20  1223 	.ascii "       "
        20
   04AE 00                 1224 	.db 0x00
   04AF                    1225 __str_26:
   04AF 25 75              1226 	.ascii "%u"
   04B1 00                 1227 	.db 0x00
                           1228 	.area _CODE
ASxxxx Assembler V01.75  (GameBoy Z80-like CPU), page 1.

Symbol Table

  0 ___calc_ans_end                    03BF R
  0 ___calc_ans_start                  02CC R
  0 ___clear_disp_end                  00D2 R
  0 ___clear_disp_start                00B1 R
  0 ___draw_screen_end                 01AB R
  0 ___draw_screen_start               00D5 R
  0 ___main_end                        00B1 R
  0 ___main_start                      0000 R
  0 ___redraw_ans_end                  04A7 R
  0 ___redraw_ans_start                0474 R
  0 ___redraw_in1_end                  03F2 R
  0 ___redraw_in1_start                03BF R
  0 ___redraw_in2_end                  0430 R
  0 ___redraw_in2_start                03FD R
  0 ___redraw_op_end                   0469 R
  0 ___redraw_op_start                 043B R
  0 ___select_op_end                   02CC R
  0 ___select_op_start                 0273 R
  1 __answer                           0009 GR
    __divslong_rrx_s                   **** GX
  1 __input1                           0001 GR
  1 __input2                           0005 GR
    __mulslong_rrx_s                   **** GX
  1 __oper                             000D GR
  0 __str_0                            00D2 R
  0 __str_1                            01AB R
  0 __str_10                           0201 R
  0 __str_11                           0203 R
  0 __str_12                           0212 R
  0 __str_13                           0216 R
  0 __str_14                           021D R
  0 __str_15                           0225 R
  0 __str_16                           023A R
  0 __str_17                           024D R
  0 __str_18                           0261 R
  0 __str_19                           03F2 R
  0 __str_2                            01AE R
  0 __str_20                           03FA R
  0 __str_21                           0430 R
  0 __str_22                           0438 R
  0 __str_23                           0469 R
  0 __str_24                           0471 R
  0 __str_25                           04A7 R
  0 __str_26                           04AF R
  0 __str_3                            01C3 R
  0 __str_4                            01CD R
  0 __str_5                            01D0 R
  0 __str_6                            01DF R
  0 __str_7                            01E1 R
  0 __str_8                            01F0 R
  0 __str_9                            01F2 R
  0 _calc_ans                          02CC GR
  0 _clear_disp                        00B1 GR
  0 _draw_screen                       00D5 GR
    _gotoxy                            **** GX
  1 _i                                 0000 GR
    _joypad                            **** GX
  0 _main                              0000 GR
    _printf                            **** GX
  0 _redraw_ans                        0474 GR
  0 _redraw_in1                        03BF GR
  0 _redraw_in2                        03FD GR
  0 _redraw_op                         043B GR
  0 _select_op                         0273 GR

ASxxxx Assembler V01.75  (GameBoy Z80-like CPU), page 2.

Area Table

   0 _CODE                              size  4B2   flags 0
   1 _DATA                              size    E   flags 0
   2 _OVERLAY                           size    0   flags 0
   3 _ISEG                              size    0   flags 0
   4 _BSEG                              size    0   flags 0
   5 _XSEG                              size    0   flags 0
   6 _GSINIT                            size   1D   flags 0
   7 _GSFINAL                           size    0   flags 0
   8 _HOME                              size    0   flags 0
